target datalayout = "e-m:e-p270:32:32-p271:32:32-p272:64:64-i64:64-i128:128-f80:128-n8:16:32:64-S128"
target triple = "x86_64-pc-linux-gnu"

@.str.140 = private unnamed_addr constant [20 x i8] c"builtin/rev-parse.c\00", align 1
@.str.141 = private unnamed_addr constant [25 x i8] c"Needed a single revision\00", align 1

; Function Attrs: nounwind uwtable
define internal void @die_no_single_rev(i32 noundef %0) #0 {
  %2 = alloca i32, align 4
  store i32 %0, ptr %2, align 4, !tbaa !4
  %3 = load i32, ptr %2, align 4, !tbaa !4
  %4 = icmp ne i32 %3, 0
  br i1 %4, label %5, label %7

5:                                                ; preds = %1
  %6 = call i32 @common_exit(ptr noundef @.str.140, i32 noundef 585, i32 noundef 1)
  call void @exit(i32 noundef %6) #14
  unreachable

7:                                                ; preds = %1
  %8 = call ptr @_(ptr noundef @.str.141)
  call void (ptr, ...) @die(ptr noundef %8) #13
  unreachable
}