; Function Attrs: noreturn nounwind uwtable
define internal fastcc void @die_no_single_rev(i32 noundef range(i32 0, 2) %0) unnamed_addr #12 {
  %.not = icmp eq i32 %0, 0
  br i1 %.not, label %4, label %2

2:                                                ; preds = %1
  %3 = tail call i32 @common_exit(ptr noundef nonnull @.str.140, i32 noundef 585, i32 noundef 1) #19
  tail call void @exit(i32 noundef %3) #21
  unreachable

4:                                                ; preds = %1
  %5 = tail call fastcc ptr @_(ptr noundef nonnull @.str.141)
  tail call void (ptr, ...) @die(ptr noundef %5) #21
  unreachable
}